target datalayout = "e-m:e-p270:32:32-p271:32:32-p272:64:64-i64:64-i128:128-f80:128-n8:16:32:64-S128"
target triple = "x86_64-pc-linux-gnu"

%struct.asn1_string_st = type { i32, i32, ptr, i64 }

@i2a_ASN1_STRING.h = internal global ptr @.str, align 8
@.str.1 = private unnamed_addr constant [2 x i8] c"0\00", align 1
@.str.2 = private unnamed_addr constant [3 x i8] c"\\\0A\00", align 1

; Function Attrs: nounwind uwtable
define hidden i32 @i2a_ASN1_STRING(ptr noundef %0, ptr noundef %1, i32 noundef %2) #0 {
  %4 = alloca i32, align 4
  %5 = alloca ptr, align 8
  %6 = alloca ptr, align 8
  %7 = alloca i32, align 4
  %8 = alloca i32, align 4
  %9 = alloca i32, align 4
  %10 = alloca [2 x i8], align 1
  %11 = alloca i32, align 4
  store ptr %0, ptr %5, align 8, !tbaa !6
  store ptr %1, ptr %6, align 8, !tbaa !11
  store i32 %2, ptr %7, align 4, !tbaa !13
  call void @llvm.lifetime.start.p0(i64 4, ptr %8) #6
  call void @llvm.lifetime.start.p0(i64 4, ptr %9) #6
  store i32 0, ptr %9, align 4, !tbaa !13
  call void @llvm.lifetime.start.p0(i64 2, ptr %10) #6
  %12 = load ptr, ptr %6, align 8, !tbaa !11
  %13 = icmp eq ptr %12, null
  br i1 %13, label %14, label %15

14:                                               ; preds = %3
  store i32 0, ptr %4, align 4
  store i32 1, ptr %11, align 4
  br label %93

15:                                               ; preds = %3
  %16 = load ptr, ptr %6, align 8, !tbaa !11
  %17 = getelementptr inbounds nuw %struct.asn1_string_st, ptr %16, i32 0, i32 0
  %18 = load i32, ptr %17, align 8, !tbaa !15
  %19 = icmp eq i32 %18, 0
  br i1 %19, label %20, label %26

20:                                               ; preds = %15
  %21 = load ptr, ptr %5, align 8, !tbaa !6
  %22 = call i32 @BIO_write(ptr noundef %21, ptr noundef @.str.1, i32 noundef 1)
  %23 = icmp ne i32 %22, 1
  br i1 %23, label %24, label %25

24:                                               ; preds = %20
  br label %92

25:                                               ; preds = %20
  store i32 1, ptr %9, align 4, !tbaa !13
  br label %90

26:                                               ; preds = %15
  store i32 0, ptr %8, align 4, !tbaa !13
  br label %27

27:                                               ; preds = %86, %26
  %28 = load i32, ptr %8, align 4, !tbaa !13
  %29 = load ptr, ptr %6, align 8, !tbaa !11
  %30 = getelementptr inbounds nuw %struct.asn1_string_st, ptr %29, i32 0, i32 0
  %31 = load i32, ptr %30, align 8, !tbaa !15
  %32 = icmp slt i32 %28, %31
  br i1 %32, label %33, label %89

33:                                               ; preds = %27
  %34 = load i32, ptr %8, align 4, !tbaa !13
  %35 = icmp ne i32 %34, 0
  br i1 %35, label %36, label %48

36:                                               ; preds = %33
  %37 = load i32, ptr %8, align 4, !tbaa !13
  %38 = srem i32 %37, 35
  %39 = icmp eq i32 %38, 0
  br i1 %39, label %40, label %48

40:                                               ; preds = %36
  %41 = load ptr, ptr %5, align 8, !tbaa !6
  %42 = call i32 @BIO_write(ptr noundef %41, ptr noundef @.str.2, i32 noundef 2)
  %43 = icmp ne i32 %42, 2
  br i1 %43, label %44, label %45

44:                                               ; preds = %40
  br label %92

45:                                               ; preds = %40
  %46 = load i32, ptr %9, align 4, !tbaa !13
  %47 = add nsw i32 %46, 2
  store i32 %47, ptr %9, align 4, !tbaa !13
  br label %48

48:                                               ; preds = %45, %36, %33
  %49 = load ptr, ptr @i2a_ASN1_STRING.h, align 8, !tbaa !19
  %50 = load ptr, ptr %6, align 8, !tbaa !11
  %51 = getelementptr inbounds nuw %struct.asn1_string_st, ptr %50, i32 0, i32 2
  %52 = load ptr, ptr %51, align 8, !tbaa !20
  %53 = load i32, ptr %8, align 4, !tbaa !13
  %54 = sext i32 %53 to i64
  %55 = getelementptr inbounds i8, ptr %52, i64 %54
  %56 = load i8, ptr %55, align 1, !tbaa !21
  %57 = zext i8 %56 to i32
  %58 = ashr i32 %57, 4
  %59 = and i32 %58, 15
  %60 = sext i32 %59 to i64
  %61 = getelementptr inbounds i8, ptr %49, i64 %60
  %62 = load i8, ptr %61, align 1, !tbaa !21
  %63 = getelementptr inbounds [2 x i8], ptr %10, i64 0, i64 0
  store i8 %62, ptr %63, align 1, !tbaa !21
  %64 = load ptr, ptr @i2a_ASN1_STRING.h, align 8, !tbaa !19
  %65 = load ptr, ptr %6, align 8, !tbaa !11
  %66 = getelementptr inbounds nuw %struct.asn1_string_st, ptr %65, i32 0, i32 2
  %67 = load ptr, ptr %66, align 8, !tbaa !20
  %68 = load i32, ptr %8, align 4, !tbaa !13
  %69 = sext i32 %68 to i64
  %70 = getelementptr inbounds i8, ptr %67, i64 %69
  %71 = load i8, ptr %70, align 1, !tbaa !21
  %72 = zext i8 %71 to i32
  %73 = and i32 %72, 15
  %74 = sext i32 %73 to i64
  %75 = getelementptr inbounds i8, ptr %64, i64 %74
  %76 = load i8, ptr %75, align 1, !tbaa !21
  %77 = getelementptr inbounds [2 x i8], ptr %10, i64 0, i64 1
  store i8 %76, ptr %77, align 1, !tbaa !21
  %78 = load ptr, ptr %5, align 8, !tbaa !6
  %79 = getelementptr inbounds [2 x i8], ptr %10, i64 0, i64 0
  %80 = call i32 @BIO_write(ptr noundef %78, ptr noundef %79, i32 noundef 2)
  %81 = icmp ne i32 %80, 2
  br i1 %81, label %82, label %83

82:                                               ; preds = %48
  br label %92

83:                                               ; preds = %48
  %84 = load i32, ptr %9, align 4, !tbaa !13
  %85 = add nsw i32 %84, 2
  store i32 %85, ptr %9, align 4, !tbaa !13
  br label %86

86:                                               ; preds = %83
  %87 = load i32, ptr %8, align 4, !tbaa !13
  %88 = add nsw i32 %87, 1
  store i32 %88, ptr %8, align 4, !tbaa !13
  br label %27, !llvm.loop !22

89:                                               ; preds = %27
  br label %90

90:                                               ; preds = %89, %25
  %91 = load i32, ptr %9, align 4, !tbaa !13
  store i32 %91, ptr %4, align 4
  store i32 1, ptr %11, align 4
  br label %93

92:                                               ; preds = %82, %44, %24
  store i32 -1, ptr %4, align 4
  store i32 1, ptr %11, align 4
  br label %93

93:                                               ; preds = %92, %90, %14
  call void @llvm.lifetime.end.p0(i64 2, ptr %10) #6
  call void @llvm.lifetime.end.p0(i64 4, ptr %9) #6
  call void @llvm.lifetime.end.p0(i64 4, ptr %8) #6
  %94 = load i32, ptr %4, align 4
  ret i32 %94
}