; Function Attrs: nounwind uwtable
define hidden range(i32 -2147483646, -2147483648) i32 @i2a_ASN1_STRING(ptr noundef %0, ptr noundef readonly captures(address_is_null) %1, i32 noundef %2) local_unnamed_addr #0 {
  %4 = alloca [2 x i8], align 1
  call void @llvm.lifetime.start.p0(i64 2, ptr nonnull %4) #7
  %5 = icmp eq ptr %1, null
  br i1 %5, label %.loopexit, label %6

6:                                                ; preds = %3
  %7 = load i32, ptr %1, align 8, !tbaa !6
  %8 = icmp eq i32 %7, 0
  br i1 %8, label %12, label %.preheader

.preheader:                                       ; preds = %6
  %9 = icmp sgt i32 %7, 0
  br i1 %9, label %.lr.ph, label %.loopexit

.lr.ph:                                           ; preds = %.preheader
  %10 = getelementptr inbounds nuw i8, ptr %1, i64 8
  %11 = getelementptr inbounds nuw i8, ptr %4, i64 1
  br label %14

12:                                               ; preds = %6
  %13 = tail call i32 @BIO_write(ptr noundef %0, ptr noundef nonnull @.str.1, i32 noundef 1) #7
  %.not22 = icmp eq i32 %13, 1
  br i1 %.not22, label %.loopexit, label %.loopexit24

14:                                               ; preds = %.lr.ph, %36
  %indvars.iv = phi i64 [ 0, %.lr.ph ], [ %indvars.iv.next, %36 ]
  %.127 = phi i32 [ 0, %.lr.ph ], [ %37, %36 ]
  %.not = icmp ne i64 %indvars.iv, 0
  %15 = trunc nuw nsw i64 %indvars.iv to i32
  %16 = urem i32 %15, 35
  %17 = icmp eq i32 %16, 0
  %or.cond = and i1 %.not, %17
  br i1 %or.cond, label %18, label %22

18:                                               ; preds = %14
  %19 = call i32 @BIO_write(ptr noundef %0, ptr noundef nonnull @.str.2, i32 noundef 2) #7
  %.not20 = icmp eq i32 %19, 2
  br i1 %.not20, label %20, label %.loopexit24

20:                                               ; preds = %18
  %21 = add nsw i32 %.127, 2
  br label %22

22:                                               ; preds = %20, %14
  %.2 = phi i32 [ %21, %20 ], [ %.127, %14 ]
  %23 = load ptr, ptr %10, align 8, !tbaa !14
  %24 = getelementptr inbounds nuw i8, ptr %23, i64 %indvars.iv
  %25 = load i8, ptr %24, align 1, !tbaa !15
  %26 = lshr i8 %25, 4
  %27 = zext nneg i8 %26 to i64
  %28 = getelementptr inbounds nuw i8, ptr @.str, i64 %27
  %29 = load i8, ptr %28, align 1, !tbaa !15
  store i8 %29, ptr %4, align 1, !tbaa !15
  %30 = load i8, ptr %24, align 1, !tbaa !15
  %31 = and i8 %30, 15
  %32 = zext nneg i8 %31 to i64
  %33 = getelementptr inbounds nuw i8, ptr @.str, i64 %32
  %34 = load i8, ptr %33, align 1, !tbaa !15
  store i8 %34, ptr %11, align 1, !tbaa !15
  %35 = call i32 @BIO_write(ptr noundef %0, ptr noundef nonnull %4, i32 noundef 2) #7
  %.not21 = icmp eq i32 %35, 2
  br i1 %.not21, label %36, label %.loopexit24

36:                                               ; preds = %22
  %37 = add nsw i32 %.2, 2
  %indvars.iv.next = add nuw nsw i64 %indvars.iv, 1
  %38 = load i32, ptr %1, align 8, !tbaa !6
  %39 = sext i32 %38 to i64
  %40 = icmp slt i64 %indvars.iv.next, %39
  br i1 %40, label %14, label %.loopexit, !llvm.loop !16

.loopexit24:                                      ; preds = %22, %18, %12
  br label %.loopexit

.loopexit:                                        ; preds = %36, %.preheader, %12, %3, %.loopexit24
  %.018 = phi i32 [ -1, %.loopexit24 ], [ 0, %3 ], [ 1, %12 ], [ 0, %.preheader ], [ %37, %36 ]
  call void @llvm.lifetime.end.p0(i64 2, ptr nonnull %4) #7
  ret i32 %.018
}